target datalayout = "e-m:e-p270:32:32-p271:32:32-p272:64:64-i64:64-i128:128-f80:128-n8:16:32:64-S128"
target triple = "x86_64-pc-linux-gnu"

%struct.ReadDirCtx = type { ptr, ptr, %struct.stat, [261 x i8] }
%struct.stat = type { i64, i64, i64, i32, i32, i32, i32, i64, i64, i64, i64, %struct.timespec, %struct.timespec, %struct.timespec, [3 x i64] }
%struct.timespec = type { i64, i64 }

@stderr = external global ptr, align 8
@.str.1880 = private unnamed_addr constant [25 x i8] c"wolfSSL_CTX_new failed.\0A\00", align 1
@.str.1881 = private unnamed_addr constant [36 x i8] c"wolfSSL_get_system_CA_dirs failed.\0A\00", align 1
@.str.1882 = private unnamed_addr constant [42 x i8] c"wolfSSL_CTX_load_system_CA_certs failed.\0A\00", align 1

; Function Attrs: nounwind uwtable
define internal i32 @test_wolfSSL_CTX_load_system_CA_certs() #0 {
  %1 = alloca i32, align 4
  %2 = alloca ptr, align 8
  %3 = alloca i8, align 1
  %4 = alloca i32, align 4
  %5 = alloca i32, align 4
  %6 = alloca ptr, align 8
  %7 = alloca %struct.ReadDirCtx, align 8
  %8 = alloca i32, align 4
  call void @llvm.lifetime.start.p0(i64 4, ptr %1) #14
  store i32 3, ptr %1, align 4, !tbaa !10
  call void @llvm.lifetime.start.p0(i64 8, ptr %2) #14
  call void @llvm.lifetime.start.p0(i64 1, ptr %3) #14
  store i8 0, ptr %3, align 1, !tbaa !58
  call void @llvm.lifetime.start.p0(i64 4, ptr %4) #14
  store i32 0, ptr %4, align 4, !tbaa !10
  %9 = call ptr @wolfSSLv23_client_method()
  %10 = call ptr @wolfSSL_CTX_new(ptr noundef %9)
  store ptr %10, ptr %2, align 8, !tbaa !84
  %11 = load ptr, ptr %2, align 8, !tbaa !84
  %12 = icmp eq ptr %11, null
  br i1 %12, label %13, label %16

13:                                               ; preds = %0
  %14 = load ptr, ptr @stderr, align 8, !tbaa !22
  %15 = call i32 (ptr, ptr, ...) @fprintf(ptr noundef %14, ptr noundef @.str.1880) #14
  store i32 -1, ptr %4, align 4, !tbaa !10
  br label %16

16:                                               ; preds = %13, %0
  %17 = load i32, ptr %4, align 4, !tbaa !10
  %18 = icmp eq i32 %17, 0
  br i1 %18, label %19, label %49

19:                                               ; preds = %16
  call void @llvm.lifetime.start.p0(i64 4, ptr %5) #14
  call void @llvm.lifetime.start.p0(i64 8, ptr %6) #14
  %20 = call ptr @wolfSSL_get_system_CA_dirs(ptr noundef %5)
  store ptr %20, ptr %6, align 8, !tbaa !163
  %21 = load ptr, ptr %6, align 8, !tbaa !163
  %22 = icmp eq ptr %21, null
  br i1 %22, label %26, label %23

23:                                               ; preds = %19
  %24 = load i32, ptr %5, align 4, !tbaa !10
  %25 = icmp eq i32 %24, 0
  br i1 %25, label %26, label %29

26:                                               ; preds = %23, %19
  %27 = load ptr, ptr @stderr, align 8, !tbaa !22
  %28 = call i32 (ptr, ptr, ...) @fprintf(ptr noundef %27, ptr noundef @.str.1881) #14
  store i32 -1, ptr %4, align 4, !tbaa !10
  br label %48

29:                                               ; preds = %23
  call void @llvm.lifetime.start.p0(i64 424, ptr %7) #14
  call void @llvm.lifetime.start.p0(i64 4, ptr %8) #14
  store i32 0, ptr %8, align 4, !tbaa !10
  br label %30

30:                                               ; preds = %44, %29
  %31 = load i32, ptr %8, align 4, !tbaa !10
  %32 = load i32, ptr %5, align 4, !tbaa !10
  %33 = icmp ult i32 %31, %32
  br i1 %33, label %34, label %47

34:                                               ; preds = %30
  %35 = load ptr, ptr %6, align 8, !tbaa !163
  %36 = load i32, ptr %8, align 4, !tbaa !10
  %37 = zext i32 %36 to i64
  %38 = getelementptr inbounds nuw ptr, ptr %35, i64 %37
  %39 = load ptr, ptr %38, align 8, !tbaa !32
  %40 = call i32 @wc_ReadDirFirst(ptr noundef %7, ptr noundef %39, ptr noundef null)
  %41 = icmp eq i32 %40, 0
  br i1 %41, label %42, label %43

42:                                               ; preds = %34
  store i8 1, ptr %3, align 1, !tbaa !58
  call void @wc_ReadDirClose(ptr noundef %7)
  br label %47

43:                                               ; preds = %34
  br label %44

44:                                               ; preds = %43
  %45 = load i32, ptr %8, align 4, !tbaa !10
  %46 = add i32 %45, 1
  store i32 %46, ptr %8, align 4, !tbaa !10
  br label %30, !llvm.loop !164

47:                                               ; preds = %42, %30
  call void @llvm.lifetime.end.p0(i64 4, ptr %8) #14
  call void @llvm.lifetime.end.p0(i64 424, ptr %7) #14
  br label %48

48:                                               ; preds = %47, %26
  call void @llvm.lifetime.end.p0(i64 8, ptr %6) #14
  call void @llvm.lifetime.end.p0(i64 4, ptr %5) #14
  br label %49

49:                                               ; preds = %48, %16
  %50 = load i32, ptr %4, align 4, !tbaa !10
  %51 = icmp eq i32 %50, 0
  br i1 %51, label %52, label %63

52:                                               ; preds = %49
  %53 = load i8, ptr %3, align 1, !tbaa !58
  %54 = zext i8 %53 to i32
  %55 = icmp ne i32 %54, 0
  br i1 %55, label %56, label %63

56:                                               ; preds = %52
  %57 = load ptr, ptr %2, align 8, !tbaa !84
  %58 = call i32 @wolfSSL_CTX_load_system_CA_certs(ptr noundef %57)
  %59 = icmp ne i32 %58, 1
  br i1 %59, label %60, label %63

60:                                               ; preds = %56
  %61 = load ptr, ptr @stderr, align 8, !tbaa !22
  %62 = call i32 (ptr, ptr, ...) @fprintf(ptr noundef %61, ptr noundef @.str.1882) #14
  store i32 -1, ptr %4, align 4, !tbaa !10
  br label %63

63:                                               ; preds = %60, %56, %52, %49
  %64 = load ptr, ptr %2, align 8, !tbaa !84
  call void @wolfSSL_CTX_free(ptr noundef %64)
  %65 = load i32, ptr %4, align 4, !tbaa !10
  %66 = icmp eq i32 %65, 0
  %67 = select i1 %66, i32 1, i32 0
  store i32 %67, ptr %1, align 4, !tbaa !10
  %68 = load i32, ptr %1, align 4, !tbaa !10
  call void @llvm.lifetime.end.p0(i64 4, ptr %4) #14
  call void @llvm.lifetime.end.p0(i64 1, ptr %3) #14
  call void @llvm.lifetime.end.p0(i64 8, ptr %2) #14
  call void @llvm.lifetime.end.p0(i64 4, ptr %1) #14
  ret i32 %68
}