; Function Attrs: nounwind uwtable
define internal range(i32 0, 2) i32 @test_wolfSSL_CTX_load_system_CA_certs() #0 {
  %1 = alloca i32, align 4
  %2 = alloca %struct.ReadDirCtx, align 8
  %3 = tail call ptr @wolfSSLv23_client_method() #27
  %4 = tail call ptr @wolfSSL_CTX_new(ptr noundef %3) #27
  %.not = icmp eq ptr %4, null
  br i1 %.not, label %.thread, label %.critedge

.thread:                                          ; preds = %0
  %5 = load ptr, ptr @stderr, align 8, !tbaa !22
  %6 = tail call i64 @fwrite(ptr nonnull @.str.1880, i64 24, i64 1, ptr %5) #34
  br label %26

.critedge:                                        ; preds = %0
  call void @llvm.lifetime.start.p0(i64 4, ptr nonnull %1) #27
  %7 = call ptr @wolfSSL_get_system_CA_dirs(ptr noundef nonnull %1) #27
  %8 = icmp eq ptr %7, null
  %9 = load i32, ptr %1, align 4
  %10 = icmp eq i32 %9, 0
  %or.cond = select i1 %8, i1 true, i1 %10
  br i1 %or.cond, label %.thread25, label %.lr.ph.preheader

.thread25:                                        ; preds = %.critedge
  %11 = load ptr, ptr @stderr, align 8, !tbaa !22
  %12 = call i64 @fwrite(ptr nonnull @.str.1881, i64 35, i64 1, ptr %11) #34
  call void @llvm.lifetime.end.p0(i64 4, ptr nonnull %1) #27
  br label %26

.lr.ph.preheader:                                 ; preds = %.critedge
  call void @llvm.lifetime.start.p0(i64 424, ptr nonnull %2) #27
  br label %.lr.ph

13:                                               ; preds = %.lr.ph
  %indvars.iv.next = add nuw nsw i64 %indvars.iv, 1
  %14 = load i32, ptr %1, align 4, !tbaa !67
  %15 = zext i32 %14 to i64
  %16 = icmp samesign ult i64 %indvars.iv.next, %15
  br i1 %16, label %.lr.ph, label %.thread29, !llvm.loop !148

.thread29:                                        ; preds = %13
  call void @llvm.lifetime.end.p0(i64 424, ptr nonnull %2) #27
  call void @llvm.lifetime.end.p0(i64 4, ptr nonnull %1) #27
  br label %26

.lr.ph:                                           ; preds = %.lr.ph.preheader, %13
  %indvars.iv = phi i64 [ 0, %.lr.ph.preheader ], [ %indvars.iv.next, %13 ]
  %17 = getelementptr inbounds nuw ptr, ptr %7, i64 %indvars.iv
  %18 = load ptr, ptr %17, align 8, !tbaa !83
  %19 = call i32 @wc_ReadDirFirst(ptr noundef nonnull %2, ptr noundef %18, ptr noundef null) #27
  %20 = icmp eq i32 %19, 0
  br i1 %20, label %21, label %13

21:                                               ; preds = %.lr.ph
  call void @wc_ReadDirClose(ptr noundef nonnull %2) #27
  call void @llvm.lifetime.end.p0(i64 424, ptr nonnull %2) #27
  call void @llvm.lifetime.end.p0(i64 4, ptr nonnull %1) #27
  %22 = call i32 @wolfSSL_CTX_load_system_CA_certs(ptr noundef nonnull %4) #27
  %.not21 = icmp eq i32 %22, 1
  br i1 %.not21, label %26, label %23

23:                                               ; preds = %21
  %24 = load ptr, ptr @stderr, align 8, !tbaa !22
  %25 = call i64 @fwrite(ptr nonnull @.str.1882, i64 41, i64 1, ptr %24) #34
  br label %26

26:                                               ; preds = %.thread29, %.thread25, %.thread, %23, %21
  %27 = phi i32 [ 0, %23 ], [ 1, %21 ], [ 0, %.thread ], [ 0, %.thread25 ], [ 1, %.thread29 ]
  call void @wolfSSL_CTX_free(ptr noundef %4) #27
  ret i32 %27
}